target datalayout = "e-m:e-p270:32:32-p271:32:32-p272:64:64-i64:64-i128:128-f80:128-n8:16:32:64-S128"
target triple = "x86_64-pc-linux-gnu"

; Function Attrs: mustprogress nounwind uwtable
define noundef i32 @_ZN6icu_776number4impl14stem_to_object12roundingModeENS1_8skeleton8StemEnumE(i32 noundef %0) #0 {
  %2 = alloca i32, align 4
  %3 = alloca i32, align 4
  store i32 %0, ptr %3, align 4, !tbaa !23
  %4 = load i32, ptr %3, align 4, !tbaa !23
  switch i32 %4, label %16 [
    i32 13, label %5
    i32 14, label %6
    i32 15, label %7
    i32 16, label %8
    i32 17, label %9
    i32 18, label %10
    i32 19, label %11
    i32 20, label %12
    i32 21, label %13
    i32 22, label %14
    i32 23, label %15
  ]

5:                                                ; preds = %1
  store i32 0, ptr %2, align 4
  br label %17

6:                                                ; preds = %1
  store i32 1, ptr %2, align 4
  br label %17

7:                                                ; preds = %1
  store i32 2, ptr %2, align 4
  br label %17

8:                                                ; preds = %1
  store i32 3, ptr %2, align 4
  br label %17

9:                                                ; preds = %1
  store i32 4, ptr %2, align 4
  br label %17

10:                                               ; preds = %1
  store i32 8, ptr %2, align 4
  br label %17

11:                                               ; preds = %1
  store i32 9, ptr %2, align 4
  br label %17

12:                                               ; preds = %1
  store i32 10, ptr %2, align 4
  br label %17

13:                                               ; preds = %1
  store i32 5, ptr %2, align 4
  br label %17

14:                                               ; preds = %1
  store i32 6, ptr %2, align 4
  br label %17

15:                                               ; preds = %1
  store i32 7, ptr %2, align 4
  br label %17

16:                                               ; preds = %1
  call void @abort() #16
  unreachable

17:                                               ; preds = %15, %14, %13, %12, %11, %10, %9, %8, %7, %6, %5
  %18 = load i32, ptr %2, align 4
  ret i32 %18
}