; Function Attrs: mustprogress nofree nounwind uwtable
define noundef range(i32 0, 11) i32 @_ZN6icu_776number4impl14stem_to_object12roundingModeENS1_8skeleton8StemEnumE(i32 noundef %0) local_unnamed_addr #11 {
  %switch.tableidx = add i32 %0, -13
  %2 = icmp ult i32 %switch.tableidx, 11
  br i1 %2, label %switch.lookup, label %3

3:                                                ; preds = %1
  tail call void @abort() #20
  unreachable

switch.lookup:                                    ; preds = %1
  %4 = zext nneg i32 %switch.tableidx to i64
  %switch.gep = getelementptr inbounds nuw [11 x i32], ptr @switch.table._ZN6icu_776number4impl14stem_to_object12roundingModeENS1_8skeleton8StemEnumE, i64 0, i64 %4
  %switch.load = load i32, ptr %switch.gep, align 4
  ret i32 %switch.load
}